ccopy_reg
_reconstructor
p0
(cgoogle.oauth2.credentials
Credentials
p1
c__builtin__
object
p2
Ntp3
Rp4
(dp5
S'_token_uri'
p6
Vhttps://oauth2.googleapis.com/token
p7
sS'_client_secret'
p8
VX5L8eM6HSQxmmGiEZsWEdkGC
p9
sS'_id_token'
p10
NsS'token'
p11
Vya29.GlvBBmwlLHXW4k_5NmL4oTtwVsVhhvjaLUCmFaIyqNyJcDvrL6kPCEvm3VjVyBmAntF5_CGvcff6ng8L56juCEqOTmc0kVkt457DD1onGL-nKl-q3DQqzO0oTnY5
p12
sS'_refresh_token'
p13
V1/Kvu-d4lRpdKLeWiuVIku-VZ6BwVpz5EkA7R-nJz1sr4
p14
sS'_scopes'
p15
(lp16
S'https://www.googleapis.com/auth/spreadsheets.readonly'
p17
asS'_client_id'
p18
V714470394163-i1hhpsker77dkpc15cm8e8l0r4tuuc1h.apps.googleusercontent.com
p19
sS'expiry'
p20
cdatetime
datetime
p21
(S'\x07\xe3\x03\x03\r*\x1a\x03c\xea'
p22
tp23
Rp24
sb.