ccopy_reg
_reconstructor
p0
(cgoogle.oauth2.credentials
Credentials
p1
c__builtin__
object
p2
Ntp3
Rp4
(dp5
S'_token_uri'
p6
Vhttps://oauth2.googleapis.com/token
p7
sS'_scopes'
p8
(lp9
S'https://www.googleapis.com/auth/spreadsheets.readonly'
p10
asS'_id_token'
p11
NsS'token'
p12
Vya29.GlvBBv8HyDS0ecj0dMrGt8BY3F5v-DRXTpfiJG1jYd-b5l_85BL9J8PltPYZ3SDoPw7K8DnNqG6geo8OmzLkiRKeAGonkSzicot_q2aR3mfA6fGGM9D5fKb_aQ63
p13
sS'_refresh_token'
p14
V1/Kvu-d4lRpdKLeWiuVIku-VZ6BwVpz5EkA7R-nJz1sr4
p15
sS'_client_secret'
p16
VX5L8eM6HSQxmmGiEZsWEdkGC
p17
sS'_client_id'
p18
V714470394163-i1hhpsker77dkpc15cm8e8l0r4tuuc1h.apps.googleusercontent.com
p19
sS'expiry'
p20
cdatetime
datetime
p21
(S'\x07\xe3\x03\x03\x15,1\x0e\x10m'
p22
tp23
Rp24
sb.